target datalayout = "e-m:e-p270:32:32-p271:32:32-p272:64:64-i64:64-i128:128-f80:128-n8:16:32:64-S128"
target triple = "x86_64-pc-linux-gnu"

%union.SourceSpan = type { i64 }
%struct.Int = type { %struct.Int128_, i32 }
%struct.Int128_ = type { i64, i64 }
%struct.Expr_ = type { ptr, %union.SourceSpan, i16, %union.anon.61 }
%union.anon.61 = type { %struct.ExprAnySwitch }
%struct.ExprAnySwitch = type { i8, %union.anon.63 }
%union.anon.63 = type { %struct.anon.64 }
%struct.anon.64 = type { ptr, %union.SourceSpan, ptr }
%struct.Type_ = type { i32, ptr, ptr, ptr, %union.anon.86, ptr, ptr, %union.anon.88 }
%union.anon.86 = type { ptr }
%union.anon.88 = type { %struct.TypeFunction }
%struct.TypeFunction = type { ptr, ptr, ptr }
%struct.ExprConst = type { i16, %union.anon.70 }
%union.anon.70 = type { %struct.Int }
%struct.Decl_ = type { ptr, ptr, %union.SourceSpan, i64, %union.anon, i32, %union.anon.0, i64, ptr, ptr, ptr, %union.anon.1 }
%union.anon = type { ptr }
%union.anon.0 = type { i16 }
%union.anon.1 = type { %struct.FuncDecl }
%struct.FuncDecl = type { i32, [4 x i8], %struct.Signature_, i32, i32, %union.anon.8 }
%struct.Signature_ = type <{ %struct.CalleeAttributes, i16, i8, i32, i32, [4 x i8], ptr }>
%struct.CalleeAttributes = type { i8 }
%union.anon.8 = type { %struct.anon.9 }
%struct.anon.9 = type { i16, %union.anon.10 }
%union.anon.10 = type { ptr }
%struct.VarDecl_ = type { i32, i32, %union.anon.14, %union.anon.15 }
%union.anon.14 = type { ptr }
%union.anon.15 = type { %struct.anon.16 }
%struct.anon.16 = type { ptr, %union.SourceSpan }
%struct.anon.19 = type { %union.anon.20 }
%union.anon.20 = type { %struct.anon.21 }
%struct.anon.21 = type { ptr, ptr }
%struct.anon.22 = type { i32, i32 }

@.str.45 = private unnamed_addr constant [92 x i8] c"This constant would be truncated if stored in the bitstruct, do you need a wider bit range?\00", align 1

; Function Attrs: nounwind uwtable
define dso_local zeroext i1 @sema_bit_assignment_check(ptr noundef %0, ptr noundef %1) #0 {
  %3 = alloca ptr, align 8
  %4 = alloca ptr, align 8
  %5 = alloca ptr, align 8
  %6 = alloca i32, align 4
  %7 = alloca i1, align 1
  %8 = alloca ptr, align 8
  %9 = alloca ptr, align 8
  %10 = alloca i32, align 4
  store ptr %0, ptr %8, align 8
  store ptr %1, ptr %9, align 8
  %11 = load ptr, ptr %8, align 8
  store ptr %11, ptr %4, align 8
  %12 = load ptr, ptr %4, align 8
  %13 = getelementptr inbounds %struct.Expr_, ptr %12, i32 0, i32 2
  %14 = load i16, ptr %13, align 8
  %15 = and i16 %14, 255
  %16 = zext i16 %15 to i32
  %17 = icmp eq i32 %16, 14
  br i1 %17, label %18, label %39

18:                                               ; preds = %2
  %19 = load ptr, ptr %8, align 8
  %20 = getelementptr inbounds %struct.Expr_, ptr %19, i32 0, i32 0
  %21 = load ptr, ptr %20, align 8
  store ptr %21, ptr %5, align 8
  %22 = load ptr, ptr %5, align 8
  %23 = load i32, ptr %22, align 8
  store i32 %23, ptr %6, align 4
  %24 = load i32, ptr %6, align 4
  %25 = icmp eq i32 %24, 31
  br i1 %25, label %26, label %31

26:                                               ; preds = %18
  %27 = load ptr, ptr %5, align 8
  %28 = getelementptr inbounds %struct.Type_, ptr %27, i32 0, i32 1
  %29 = load ptr, ptr %28, align 8
  %30 = load i32, ptr %29, align 8
  store i32 %30, ptr %6, align 4
  br label %31

31:                                               ; preds = %26, %18
  %32 = load i32, ptr %6, align 4
  %33 = icmp uge i32 %32, 3
  br i1 %33, label %34, label %37

34:                                               ; preds = %31
  %35 = load i32, ptr %6, align 4
  %36 = icmp ule i32 %35, 12
  br label %37

37:                                               ; preds = %34, %31
  %38 = phi i1 [ false, %31 ], [ %36, %34 ]
  br i1 %38, label %40, label %39

39:                                               ; preds = %37, %2
  store i1 true, ptr %7, align 1
  br label %84

40:                                               ; preds = %37
  %41 = load ptr, ptr %9, align 8
  %42 = getelementptr inbounds %struct.Decl_, ptr %41, i32 0, i32 11
  %43 = getelementptr inbounds %struct.VarDecl_, ptr %42, i32 0, i32 3
  %44 = getelementptr inbounds %struct.anon.19, ptr %43, i32 0, i32 0
  %45 = getelementptr inbounds %struct.anon.22, ptr %44, i32 0, i32 1
  %46 = load i32, ptr %45, align 4
  %47 = load ptr, ptr %9, align 8
  %48 = getelementptr inbounds %struct.Decl_, ptr %47, i32 0, i32 11
  %49 = getelementptr inbounds %struct.VarDecl_, ptr %48, i32 0, i32 3
  %50 = getelementptr inbounds %struct.anon.19, ptr %49, i32 0, i32 0
  %51 = getelementptr inbounds %struct.anon.22, ptr %50, i32 0, i32 0
  %52 = load i32, ptr %51, align 8
  %53 = sub i32 %46, %52
  %54 = add i32 %53, 1
  store i32 %54, ptr %10, align 4
  %55 = load i32, ptr %10, align 4
  %56 = zext i32 %55 to i64
  %57 = load ptr, ptr %8, align 8
  %58 = getelementptr inbounds %struct.Expr_, ptr %57, i32 0, i32 0
  %59 = load ptr, ptr %58, align 8
  store ptr %59, ptr %3, align 8
  %60 = load ptr, ptr %3, align 8
  %61 = call i32 @type_size(ptr noundef %60) #7
  %62 = mul i32 %61, 8
  %63 = zext i32 %62 to i64
  %64 = icmp uge i64 %56, %63
  br i1 %64, label %70, label %65

65:                                               ; preds = %40
  %66 = load ptr, ptr %8, align 8
  %67 = getelementptr inbounds %struct.Expr_, ptr %66, i32 0, i32 3
  %68 = getelementptr inbounds %struct.ExprConst, ptr %67, i32 0, i32 1
  %69 = call zeroext i1 @int_is_zero(ptr noundef byval(%struct.Int) align 8 %68)
  br i1 %69, label %70, label %71

70:                                               ; preds = %65, %40
  store i1 true, ptr %7, align 1
  br label %84

71:                                               ; preds = %65
  %72 = load ptr, ptr %8, align 8
  %73 = getelementptr inbounds %struct.Expr_, ptr %72, i32 0, i32 3
  %74 = getelementptr inbounds %struct.ExprConst, ptr %73, i32 0, i32 1
  %75 = call i32 @int_bits_needed(ptr noundef byval(%struct.Int) align 8 %74)
  %76 = load i32, ptr %10, align 4
  %77 = icmp ugt i32 %75, %76
  br i1 %77, label %78, label %83

78:                                               ; preds = %71
  %79 = load ptr, ptr %8, align 8
  %80 = getelementptr inbounds %struct.Expr_, ptr %79, i32 0, i32 1
  %81 = getelementptr inbounds %union.SourceSpan, ptr %80, i32 0, i32 0
  %82 = load i64, ptr %81, align 8
  call void (i64, ptr, ...) @sema_error_at(i64 %82, ptr noundef @.str.45)
  store i1 false, ptr %7, align 1
  br label %84

83:                                               ; preds = %71
  store i1 true, ptr %7, align 1
  br label %84

84:                                               ; preds = %83, %78, %70, %39
  %85 = load i1, ptr %7, align 1
  ret i1 %85
}