; Function Attrs: nounwind uwtable
define dso_local noundef zeroext i1 @sema_bit_assignment_check(ptr noundef %0, ptr nocapture noundef readonly %1) local_unnamed_addr #0 {
  %3 = getelementptr inbounds i8, ptr %0, i64 16
  %4 = load i16, ptr %3, align 8
  %5 = and i16 %4, 255
  %6 = icmp eq i16 %5, 14
  br i1 %6, label %7, label %36

7:                                                ; preds = %2
  %8 = load ptr, ptr %0, align 8
  %9 = load i32, ptr %8, align 8
  %10 = icmp eq i32 %9, 31
  br i1 %10, label %11, label %15

11:                                               ; preds = %7
  %12 = getelementptr inbounds i8, ptr %8, i64 8
  %13 = load ptr, ptr %12, align 8
  %14 = load i32, ptr %13, align 8
  br label %15

15:                                               ; preds = %11, %7
  %.0 = phi i32 [ %14, %11 ], [ %9, %7 ]
  %16 = add i32 %.0, -3
  %17 = icmp ult i32 %16, 10
  br i1 %17, label %18, label %36

18:                                               ; preds = %15
  %19 = getelementptr inbounds i8, ptr %1, i64 96
  %20 = getelementptr inbounds i8, ptr %1, i64 100
  %21 = load i32, ptr %20, align 4
  %22 = load i32, ptr %19, align 8
  %23 = sub i32 %21, %22
  %24 = add i32 %23, 1
  %25 = tail call i32 @type_size(ptr noundef nonnull %8) #13
  %26 = shl i32 %25, 3
  %.not = icmp ult i32 %24, %26
  br i1 %.not, label %27, label %36

27:                                               ; preds = %18
  %28 = getelementptr inbounds i8, ptr %0, i64 32
  %29 = tail call zeroext i1 @int_is_zero(ptr noundef nonnull byval(%struct.Int) align 8 %28) #13
  br i1 %29, label %36, label %30

30:                                               ; preds = %27
  %31 = tail call i32 @int_bits_needed(ptr noundef nonnull byval(%struct.Int) align 8 %28) #13
  %32 = icmp ugt i32 %31, %24
  br i1 %32, label %33, label %36

33:                                               ; preds = %30
  %34 = getelementptr inbounds i8, ptr %0, i64 8
  %35 = load i64, ptr %34, align 8
  tail call void (i64, ptr, ...) @sema_error_at(i64 %35, ptr noundef nonnull @.str.45) #13
  br label %36

36:                                               ; preds = %30, %18, %27, %2, %15, %33
  %.017 = phi i1 [ false, %33 ], [ true, %15 ], [ true, %2 ], [ true, %27 ], [ true, %18 ], [ true, %30 ]
  ret i1 %.017
}